target datalayout = "e-m:e-p270:32:32-p271:32:32-p272:64:64-i64:64-i128:128-f80:128-n8:16:32:64-S128"
target triple = "x86_64-pc-linux-gnu"

%struct._lv_dropdown_t = type { %struct._lv_obj_t, ptr, ptr, ptr, ptr, i32, i32, i32, i32, i8 }
%struct._lv_obj_t = type { ptr, ptr, ptr, ptr, ptr, %struct.lv_area_t, i32, i16, i16 }
%struct.lv_area_t = type { i32, i32, i32, i32 }
%union.lv_style_value_t = type { ptr }
%struct.lv_draw_dsc_base_t = type { ptr, i32, i32, i32, ptr, i64, ptr }
%struct.lv_color_t = type { i8, i8, i8 }
%struct.lv_draw_rect_dsc_t = type { %struct.lv_draw_dsc_base_t, i32, i8, %struct.lv_color_t, %struct.lv_grad_dsc_t, ptr, ptr, %struct.lv_color_t, i8, i8, i8, %struct.lv_color_t, i32, i8, i8, %struct.lv_color_t, i32, i32, i8, %struct.lv_color_t, i32, i32, i32, i32, i8 }
%struct.lv_grad_dsc_t = type { [2 x %struct.lv_gradient_stop_t], i8, i8 }
%struct.lv_gradient_stop_t = type { %struct.lv_color_t, i8, i8 }

; Function Attrs: nounwind uwtable
define internal ptr @get_label(ptr noundef %0) #0 {
  %2 = alloca ptr, align 8
  %3 = alloca ptr, align 8
  %4 = alloca ptr, align 8
  %5 = alloca i32, align 4
  store ptr %0, ptr %3, align 8, !tbaa !3
  call void @llvm.lifetime.start.p0(i64 8, ptr %4) #5
  %6 = load ptr, ptr %3, align 8, !tbaa !3
  store ptr %6, ptr %4, align 8, !tbaa !3
  %7 = load ptr, ptr %4, align 8, !tbaa !3
  %8 = getelementptr inbounds nuw %struct._lv_dropdown_t, ptr %7, i32 0, i32 1
  %9 = load ptr, ptr %8, align 8, !tbaa !7
  %10 = icmp eq ptr %9, null
  br i1 %10, label %11, label %12

11:                                               ; preds = %1
  store ptr null, ptr %2, align 8
  store i32 1, ptr %5, align 4
  br label %17

12:                                               ; preds = %1
  %13 = load ptr, ptr %4, align 8, !tbaa !3
  %14 = getelementptr inbounds nuw %struct._lv_dropdown_t, ptr %13, i32 0, i32 1
  %15 = load ptr, ptr %14, align 8, !tbaa !7
  %16 = call ptr @lv_obj_get_child(ptr noundef %15, i32 noundef 0)
  store ptr %16, ptr %2, align 8
  store i32 1, ptr %5, align 4
  br label %17

17:                                               ; preds = %12, %11
  call void @llvm.lifetime.end.p0(i64 8, ptr %4) #5
  %18 = load ptr, ptr %2, align 8
  ret ptr %18
}

; Function Attrs: inlinehint nounwind uwtable
define internal i32 @lv_obj_get_style_text_line_space(ptr noundef %0, i32 noundef %1) #3 {
  %3 = alloca ptr, align 8
  %4 = alloca i32, align 4
  %5 = alloca %union.lv_style_value_t, align 8
  store ptr %0, ptr %3, align 8, !tbaa !3
  store i32 %1, ptr %4, align 4, !tbaa !22
  call void @llvm.lifetime.start.p0(i64 8, ptr %5) #5
  %6 = load ptr, ptr %3, align 8, !tbaa !3
  %7 = load i32, ptr %4, align 4, !tbaa !22
  %8 = call ptr @lv_obj_get_style_prop(ptr noundef %6, i32 noundef %7, i8 noundef zeroext 92)
  %9 = getelementptr inbounds nuw %union.lv_style_value_t, ptr %5, i32 0, i32 0
  store ptr %8, ptr %9, align 8
  %10 = load i32, ptr %5, align 8, !tbaa !29
  call void @llvm.lifetime.end.p0(i64 8, ptr %5) #5
  ret i32 %10
}

; Function Attrs: inlinehint nounwind uwtable
define internal ptr @lv_obj_get_style_text_font(ptr noundef %0, i32 noundef %1) #3 {
  %3 = alloca ptr, align 8
  %4 = alloca i32, align 4
  %5 = alloca %union.lv_style_value_t, align 8
  store ptr %0, ptr %3, align 8, !tbaa !3
  store i32 %1, ptr %4, align 4, !tbaa !22
  call void @llvm.lifetime.start.p0(i64 8, ptr %5) #5
  %6 = load ptr, ptr %3, align 8, !tbaa !3
  %7 = load i32, ptr %4, align 4, !tbaa !22
  %8 = call ptr @lv_obj_get_style_prop(ptr noundef %6, i32 noundef %7, i8 noundef zeroext 90)
  %9 = getelementptr inbounds nuw %union.lv_style_value_t, ptr %5, i32 0, i32 0
  store ptr %8, ptr %9, align 8
  %10 = load ptr, ptr %5, align 8, !tbaa !29
  call void @llvm.lifetime.end.p0(i64 8, ptr %5) #5
  ret ptr %10
}

; Function Attrs: nounwind uwtable
define internal void @draw_box(ptr noundef %0, ptr noundef %1, i32 noundef %2, i16 noundef zeroext %3) #0 {
  %5 = alloca ptr, align 8
  %6 = alloca ptr, align 8
  %7 = alloca i32, align 4
  %8 = alloca i16, align 2
  %9 = alloca ptr, align 8
  %10 = alloca ptr, align 8
  %11 = alloca i16, align 2
  %12 = alloca ptr, align 8
  %13 = alloca i32, align 4
  %14 = alloca i32, align 4
  %15 = alloca ptr, align 8
  %16 = alloca %struct.lv_area_t, align 4
  %17 = alloca %struct.lv_draw_rect_dsc_t, align 8
  store ptr %0, ptr %5, align 8, !tbaa !3
  store ptr %1, ptr %6, align 8, !tbaa !3
  store i32 %2, ptr %7, align 4, !tbaa !22
  store i16 %3, ptr %8, align 2, !tbaa !61
  %18 = load i32, ptr %7, align 4, !tbaa !22
  %19 = icmp eq i32 %18, 65535
  br i1 %19, label %20, label %21

20:                                               ; preds = %4
  br label %104

21:                                               ; preds = %4
  call void @llvm.lifetime.start.p0(i64 8, ptr %9) #5
  %22 = load ptr, ptr %5, align 8, !tbaa !3
  store ptr %22, ptr %9, align 8, !tbaa !3
  call void @llvm.lifetime.start.p0(i64 8, ptr %10) #5
  %23 = load ptr, ptr %9, align 8, !tbaa !3
  %24 = getelementptr inbounds nuw %struct._lv_dropdown_t, ptr %23, i32 0, i32 1
  %25 = load ptr, ptr %24, align 8, !tbaa !7
  store ptr %25, ptr %10, align 8, !tbaa !3
  call void @llvm.lifetime.start.p0(i64 2, ptr %11) #5
  %26 = load ptr, ptr %10, align 8, !tbaa !3
  %27 = getelementptr inbounds nuw %struct._lv_obj_t, ptr %26, i32 0, i32 7
  %28 = load i16, ptr %27, align 4, !tbaa !62
  store i16 %28, ptr %11, align 2, !tbaa !61
  %29 = load i16, ptr %8, align 2, !tbaa !61
  %30 = zext i16 %29 to i32
  %31 = load ptr, ptr %10, align 8, !tbaa !3
  %32 = getelementptr inbounds nuw %struct._lv_obj_t, ptr %31, i32 0, i32 7
  %33 = load i16, ptr %32, align 4, !tbaa !62
  %34 = zext i16 %33 to i32
  %35 = icmp ne i32 %30, %34
  br i1 %35, label %36, label %45

36:                                               ; preds = %21
  %37 = load i16, ptr %8, align 2, !tbaa !61
  %38 = load ptr, ptr %10, align 8, !tbaa !3
  %39 = getelementptr inbounds nuw %struct._lv_obj_t, ptr %38, i32 0, i32 7
  store i16 %37, ptr %39, align 4, !tbaa !62
  %40 = load ptr, ptr %10, align 8, !tbaa !3
  %41 = getelementptr inbounds nuw %struct._lv_obj_t, ptr %40, i32 0, i32 8
  %42 = load i16, ptr %41, align 2
  %43 = and i16 %42, -9
  %44 = or i16 %43, 8
  store i16 %44, ptr %41, align 2
  br label %45

45:                                               ; preds = %36, %21
  call void @llvm.lifetime.start.p0(i64 8, ptr %12) #5
  %46 = load ptr, ptr %10, align 8, !tbaa !3
  %47 = call ptr @lv_obj_get_style_text_font(ptr noundef %46, i32 noundef 262144)
  store ptr %47, ptr %12, align 8, !tbaa !3
  call void @llvm.lifetime.start.p0(i64 4, ptr %13) #5
  %48 = load ptr, ptr %10, align 8, !tbaa !3
  %49 = call i32 @lv_obj_get_style_text_line_space(ptr noundef %48, i32 noundef 262144)
  store i32 %49, ptr %13, align 4, !tbaa !22
  call void @llvm.lifetime.start.p0(i64 4, ptr %14) #5
  %50 = load ptr, ptr %12, align 8, !tbaa !3
  %51 = call i32 @lv_font_get_line_height(ptr noundef %50)
  store i32 %51, ptr %14, align 4, !tbaa !22
  call void @llvm.lifetime.start.p0(i64 8, ptr %15) #5
  %52 = load ptr, ptr %5, align 8, !tbaa !3
  %53 = call ptr @get_label(ptr noundef %52)
  store ptr %53, ptr %15, align 8, !tbaa !3
  call void @llvm.lifetime.start.p0(i64 16, ptr %16) #5
  %54 = load ptr, ptr %15, align 8, !tbaa !3
  %55 = getelementptr inbounds nuw %struct._lv_obj_t, ptr %54, i32 0, i32 5
  %56 = getelementptr inbounds nuw %struct.lv_area_t, ptr %55, i32 0, i32 1
  %57 = load i32, ptr %56, align 4, !tbaa !41
  %58 = getelementptr inbounds nuw %struct.lv_area_t, ptr %16, i32 0, i32 1
  store i32 %57, ptr %58, align 4, !tbaa !50
  %59 = load i32, ptr %7, align 4, !tbaa !22
  %60 = load i32, ptr %14, align 4, !tbaa !22
  %61 = load i32, ptr %13, align 4, !tbaa !22
  %62 = add nsw i32 %60, %61
  %63 = mul i32 %59, %62
  %64 = getelementptr inbounds nuw %struct.lv_area_t, ptr %16, i32 0, i32 1
  %65 = load i32, ptr %64, align 4, !tbaa !50
  %66 = add i32 %65, %63
  store i32 %66, ptr %64, align 4, !tbaa !50
  %67 = load i32, ptr %13, align 4, !tbaa !22
  %68 = sdiv i32 %67, 2
  %69 = getelementptr inbounds nuw %struct.lv_area_t, ptr %16, i32 0, i32 1
  %70 = load i32, ptr %69, align 4, !tbaa !50
  %71 = sub nsw i32 %70, %68
  store i32 %71, ptr %69, align 4, !tbaa !50
  %72 = getelementptr inbounds nuw %struct.lv_area_t, ptr %16, i32 0, i32 1
  %73 = load i32, ptr %72, align 4, !tbaa !50
  %74 = load i32, ptr %14, align 4, !tbaa !22
  %75 = add nsw i32 %73, %74
  %76 = load i32, ptr %13, align 4, !tbaa !22
  %77 = add nsw i32 %75, %76
  %78 = sub nsw i32 %77, 1
  %79 = getelementptr inbounds nuw %struct.lv_area_t, ptr %16, i32 0, i32 3
  store i32 %78, ptr %79, align 4, !tbaa !51
  %80 = load ptr, ptr %9, align 8, !tbaa !3
  %81 = getelementptr inbounds nuw %struct._lv_dropdown_t, ptr %80, i32 0, i32 1
  %82 = load ptr, ptr %81, align 8, !tbaa !7
  %83 = getelementptr inbounds nuw %struct._lv_obj_t, ptr %82, i32 0, i32 5
  %84 = getelementptr inbounds nuw %struct.lv_area_t, ptr %83, i32 0, i32 0
  %85 = load i32, ptr %84, align 8, !tbaa !52
  %86 = getelementptr inbounds nuw %struct.lv_area_t, ptr %16, i32 0, i32 0
  store i32 %85, ptr %86, align 4, !tbaa !53
  %87 = load ptr, ptr %9, align 8, !tbaa !3
  %88 = getelementptr inbounds nuw %struct._lv_dropdown_t, ptr %87, i32 0, i32 1
  %89 = load ptr, ptr %88, align 8, !tbaa !7
  %90 = getelementptr inbounds nuw %struct._lv_obj_t, ptr %89, i32 0, i32 5
  %91 = getelementptr inbounds nuw %struct.lv_area_t, ptr %90, i32 0, i32 2
  %92 = load i32, ptr %91, align 8, !tbaa !63
  %93 = getelementptr inbounds nuw %struct.lv_area_t, ptr %16, i32 0, i32 2
  store i32 %92, ptr %93, align 4, !tbaa !54
  call void @llvm.lifetime.start.p0(i64 144, ptr %17) #5
  call void @lv_draw_rect_dsc_init(ptr noundef %17)
  %94 = load ptr, ptr %10, align 8, !tbaa !3
  call void @lv_obj_init_draw_rect_dsc(ptr noundef %94, i32 noundef 262144, ptr noundef %17)
  %95 = load ptr, ptr %6, align 8, !tbaa !3
  call void @lv_draw_rect(ptr noundef %95, ptr noundef %17, ptr noundef %16)
  %96 = load i16, ptr %11, align 2, !tbaa !61
  %97 = load ptr, ptr %10, align 8, !tbaa !3
  %98 = getelementptr inbounds nuw %struct._lv_obj_t, ptr %97, i32 0, i32 7
  store i16 %96, ptr %98, align 4, !tbaa !62
  %99 = load ptr, ptr %10, align 8, !tbaa !3
  %100 = getelementptr inbounds nuw %struct._lv_obj_t, ptr %99, i32 0, i32 8
  %101 = load i16, ptr %100, align 2
  %102 = and i16 %101, -9
  %103 = or i16 %102, 0
  store i16 %103, ptr %100, align 2
  call void @llvm.lifetime.end.p0(i64 144, ptr %17) #5
  call void @llvm.lifetime.end.p0(i64 16, ptr %16) #5
  call void @llvm.lifetime.end.p0(i64 8, ptr %15) #5
  call void @llvm.lifetime.end.p0(i64 4, ptr %14) #5
  call void @llvm.lifetime.end.p0(i64 4, ptr %13) #5
  call void @llvm.lifetime.end.p0(i64 8, ptr %12) #5
  call void @llvm.lifetime.end.p0(i64 2, ptr %11) #5
  call void @llvm.lifetime.end.p0(i64 8, ptr %10) #5
  call void @llvm.lifetime.end.p0(i64 8, ptr %9) #5
  br label %104

104:                                              ; preds = %45, %20
  ret void
}