; Function Attrs: nounwind uwtable
define internal fastcc void @draw_box(ptr nocapture noundef readonly %0, ptr noundef %1, i32 noundef %2, i16 noundef zeroext range(i16 1, 34) %3) unnamed_addr #0 {
  %5 = alloca %struct.lv_area_t, align 4
  %6 = alloca %struct.lv_draw_rect_dsc_t, align 8
  %7 = icmp eq i32 %2, 65535
  br i1 %7, label %41, label %8

8:                                                ; preds = %4
  %9 = getelementptr inbounds nuw i8, ptr %0, i64 64
  %10 = load ptr, ptr %9, align 8, !tbaa !3
  %11 = getelementptr inbounds nuw i8, ptr %10, i64 60
  %12 = load i16, ptr %11, align 4, !tbaa !56
  %.not = icmp eq i16 %3, %12
  br i1 %.not, label %get_label.exit, label %13

13:                                               ; preds = %8
  store i16 %3, ptr %11, align 4, !tbaa !56
  %14 = getelementptr inbounds nuw i8, ptr %10, i64 62
  %15 = load i16, ptr %14, align 2
  %16 = or i16 %15, 8
  store i16 %16, ptr %14, align 2
  br label %get_label.exit

get_label.exit:                                   ; preds = %13, %8
  %17 = tail call ptr @lv_obj_get_style_prop(ptr noundef nonnull %10, i32 noundef 262144, i8 noundef zeroext 90) #7
  %18 = tail call ptr @lv_obj_get_style_prop(ptr noundef nonnull %10, i32 noundef 262144, i8 noundef zeroext 92) #7
  %19 = ptrtoint ptr %18 to i64
  %.sroa.0.0.extract.trunc.i = trunc i64 %19 to i32
  %20 = tail call i32 @lv_font_get_line_height(ptr noundef %17) #7
  %.val = load ptr, ptr %9, align 8, !tbaa !3, !nonnull !57, !noundef !57
  %21 = tail call ptr @lv_obj_get_child(ptr noundef nonnull %.val, i32 noundef 0) #7
  call void @llvm.lifetime.start.p0(i64 16, ptr nonnull %5) #7
  %22 = getelementptr inbounds nuw i8, ptr %21, i64 44
  %23 = load i32, ptr %22, align 4, !tbaa !26
  %24 = getelementptr inbounds nuw i8, ptr %5, i64 4
  %25 = add i32 %20, %.sroa.0.0.extract.trunc.i
  %26 = mul i32 %25, %2
  %.neg = sdiv i32 %.sroa.0.0.extract.trunc.i, -2
  %27 = add i32 %26, %.neg
  %28 = add i32 %27, %23
  store i32 %28, ptr %24, align 4, !tbaa !46
  %29 = add i32 %25, -1
  %30 = add i32 %29, %28
  %31 = getelementptr inbounds nuw i8, ptr %5, i64 12
  store i32 %30, ptr %31, align 4, !tbaa !47
  %32 = load ptr, ptr %9, align 8, !tbaa !3
  %33 = getelementptr inbounds nuw i8, ptr %32, i64 40
  %34 = load i32, ptr %33, align 8, !tbaa !48
  store i32 %34, ptr %5, align 4, !tbaa !49
  %35 = getelementptr inbounds nuw i8, ptr %32, i64 48
  %36 = load i32, ptr %35, align 8, !tbaa !58
  %37 = getelementptr inbounds nuw i8, ptr %5, i64 8
  store i32 %36, ptr %37, align 4, !tbaa !50
  call void @llvm.lifetime.start.p0(i64 144, ptr nonnull %6) #7
  call void @lv_draw_rect_dsc_init(ptr noundef nonnull %6) #7
  call void @lv_obj_init_draw_rect_dsc(ptr noundef nonnull %10, i32 noundef 262144, ptr noundef nonnull %6) #7
  call void @lv_draw_rect(ptr noundef %1, ptr noundef nonnull %6, ptr noundef nonnull %5) #7
  store i16 %12, ptr %11, align 4, !tbaa !56
  %38 = getelementptr inbounds nuw i8, ptr %10, i64 62
  %39 = load i16, ptr %38, align 2
  %40 = and i16 %39, -9
  store i16 %40, ptr %38, align 2
  call void @llvm.lifetime.end.p0(i64 144, ptr nonnull %6) #7
  call void @llvm.lifetime.end.p0(i64 16, ptr nonnull %5) #7
  br label %41

41:                                               ; preds = %4, %get_label.exit
  ret void
}